target datalayout = "e-m:e-p270:32:32-p271:32:32-p272:64:64-i64:64-i128:128-f80:128-n8:16:32:64-S128"
target triple = "x86_64-pc-linux-gnu"

%struct.Ssw_Cla_t_ = type { ptr, ptr, ptr, i32, i32, i32, i32, ptr, ptr, ptr, ptr, ptr, ptr, ptr, ptr, ptr }
%struct.Aig_Man_t_ = type { ptr, ptr, ptr, ptr, ptr, ptr, ptr, %struct.Aig_Obj_t_, i32, i32, i32, i32, i32, i32, [7 x i32], i32, ptr, i32, ptr, i32, ptr, i32, i32, i32, ptr, i32, i32, i32, i32, i32, ptr, ptr, i32, ptr, ptr, i32, ptr, ptr, i32, i32, i32, ptr, ptr, ptr, ptr, ptr, ptr, ptr, ptr, ptr, ptr, ptr, ptr, ptr, ptr, i32, ptr, ptr, ptr, ptr, i32, i64, i64, i64, ptr, ptr }
%struct.Aig_Obj_t_ = type { %union.anon, ptr, ptr, i64, i32, i32, %union.anon.0 }
%union.anon = type { ptr }
%union.anon.0 = type { ptr }
%struct.Vec_Ptr_t_ = type { i32, i32, ptr }

; Function Attrs: inlinehint nounwind uwtable
define internal void @Aig_ObjSetRepr(ptr noundef %0, ptr noundef %1, ptr noundef %2) #5 {
  %4 = alloca ptr, align 8
  %5 = alloca ptr, align 8
  %6 = alloca ptr, align 8
  store ptr %0, ptr %4, align 8, !tbaa !3
  store ptr %1, ptr %5, align 8, !tbaa !48
  store ptr %2, ptr %6, align 8, !tbaa !48
  %7 = load ptr, ptr %6, align 8, !tbaa !48
  %8 = load ptr, ptr %4, align 8, !tbaa !3
  %9 = getelementptr inbounds nuw %struct.Aig_Man_t_, ptr %8, i32 0, i32 31
  %10 = load ptr, ptr %9, align 8, !tbaa !22
  %11 = load ptr, ptr %5, align 8, !tbaa !48
  %12 = getelementptr inbounds nuw %struct.Aig_Obj_t_, ptr %11, i32 0, i32 5
  %13 = load i32, ptr %12, align 4, !tbaa !50
  %14 = sext i32 %13 to i64
  %15 = getelementptr inbounds ptr, ptr %10, i64 %14
  store ptr %7, ptr %15, align 8, !tbaa !48
  ret void
}

; Function Attrs: inlinehint nounwind uwtable
define internal ptr @Aig_ManConst1(ptr noundef %0) #5 {
  %2 = alloca ptr, align 8
  store ptr %0, ptr %2, align 8, !tbaa !3
  %3 = load ptr, ptr %2, align 8, !tbaa !3
  %4 = getelementptr inbounds nuw %struct.Aig_Man_t_, ptr %3, i32 0, i32 6
  %5 = load ptr, ptr %4, align 8, !tbaa !109
  ret ptr %5
}

; Function Attrs: inlinehint nounwind uwtable
define internal i32 @Saig_ManPiNum(ptr noundef %0) #5 {
  %2 = alloca ptr, align 8
  store ptr %0, ptr %2, align 8, !tbaa !3
  %3 = load ptr, ptr %2, align 8, !tbaa !3
  %4 = getelementptr inbounds nuw %struct.Aig_Man_t_, ptr %3, i32 0, i32 9
  %5 = load i32, ptr %4, align 4, !tbaa !116
  ret i32 %5
}

; Function Attrs: inlinehint nounwind uwtable
define internal i32 @Aig_ObjCioId(ptr noundef %0) #5 {
  %2 = alloca ptr, align 8
  store ptr %0, ptr %2, align 8, !tbaa !48
  %3 = load ptr, ptr %2, align 8, !tbaa !48
  %4 = getelementptr inbounds nuw %struct.Aig_Obj_t_, ptr %3, i32 0, i32 0
  %5 = load i32, ptr %4, align 8, !tbaa !115
  ret i32 %5
}

; Function Attrs: inlinehint nounwind uwtable
define internal i32 @Aig_ObjIsCi(ptr noundef %0) #5 {
  %2 = alloca ptr, align 8
  store ptr %0, ptr %2, align 8, !tbaa !48
  %3 = load ptr, ptr %2, align 8, !tbaa !48
  %4 = getelementptr inbounds nuw %struct.Aig_Obj_t_, ptr %3, i32 0, i32 3
  %5 = load i64, ptr %4, align 8
  %6 = and i64 %5, 7
  %7 = trunc i64 %6 to i32
  %8 = icmp eq i32 %7, 2
  %9 = zext i1 %8 to i32
  ret i32 %9
}

; Function Attrs: inlinehint nounwind uwtable
define internal void @Ssw_ObjSetConst1Cand(ptr noundef %0, ptr noundef %1) #5 {
  %3 = alloca ptr, align 8
  %4 = alloca ptr, align 8
  store ptr %0, ptr %3, align 8, !tbaa !3
  store ptr %1, ptr %4, align 8, !tbaa !48
  %5 = load ptr, ptr %3, align 8, !tbaa !3
  %6 = load ptr, ptr %4, align 8, !tbaa !48
  %7 = load ptr, ptr %3, align 8, !tbaa !3
  %8 = call ptr @Aig_ManConst1(ptr noundef %7)
  call void @Aig_ObjSetRepr(ptr noundef %5, ptr noundef %6, ptr noundef %8)
  ret void
}

; Function Attrs: inlinehint nounwind uwtable
define internal i32 @Aig_ObjIsNode(ptr noundef %0) #5 {
  %2 = alloca ptr, align 8
  store ptr %0, ptr %2, align 8, !tbaa !48
  %3 = load ptr, ptr %2, align 8, !tbaa !48
  %4 = getelementptr inbounds nuw %struct.Aig_Obj_t_, ptr %3, i32 0, i32 3
  %5 = load i64, ptr %4, align 8
  %6 = and i64 %5, 7
  %7 = trunc i64 %6 to i32
  %8 = icmp eq i32 %7, 5
  br i1 %8, label %16, label %9

9:                                                ; preds = %1
  %10 = load ptr, ptr %2, align 8, !tbaa !48
  %11 = getelementptr inbounds nuw %struct.Aig_Obj_t_, ptr %10, i32 0, i32 3
  %12 = load i64, ptr %11, align 8
  %13 = and i64 %12, 7
  %14 = trunc i64 %13 to i32
  %15 = icmp eq i32 %14, 6
  br label %16

16:                                               ; preds = %9, %1
  %17 = phi i1 [ true, %1 ], [ %15, %9 ]
  %18 = zext i1 %17 to i32
  ret i32 %18
}

; Function Attrs: inlinehint nounwind uwtable
define internal i32 @Saig_ObjIsLo(ptr noundef %0, ptr noundef %1) #5 {
  %3 = alloca ptr, align 8
  %4 = alloca ptr, align 8
  store ptr %0, ptr %3, align 8, !tbaa !3
  store ptr %1, ptr %4, align 8, !tbaa !48
  %5 = load ptr, ptr %4, align 8, !tbaa !48
  %6 = call i32 @Aig_ObjIsCi(ptr noundef %5)
  %7 = icmp ne i32 %6, 0
  br i1 %7, label %8, label %14

8:                                                ; preds = %2
  %9 = load ptr, ptr %4, align 8, !tbaa !48
  %10 = call i32 @Aig_ObjCioId(ptr noundef %9)
  %11 = load ptr, ptr %3, align 8, !tbaa !3
  %12 = call i32 @Saig_ManPiNum(ptr noundef %11)
  %13 = icmp sge i32 %10, %12
  br label %14

14:                                               ; preds = %8, %2
  %15 = phi i1 [ false, %2 ], [ %13, %8 ]
  %16 = zext i1 %15 to i32
  ret i32 %16
}

; Function Attrs: inlinehint nounwind uwtable
define internal ptr @Vec_PtrEntry(ptr noundef %0, i32 noundef %1) #5 {
  %3 = alloca ptr, align 8
  %4 = alloca i32, align 4
  store ptr %0, ptr %3, align 8, !tbaa !34
  store i32 %1, ptr %4, align 4, !tbaa !33
  %5 = load ptr, ptr %3, align 8, !tbaa !34
  %6 = getelementptr inbounds nuw %struct.Vec_Ptr_t_, ptr %5, i32 0, i32 2
  %7 = load ptr, ptr %6, align 8, !tbaa !38
  %8 = load i32, ptr %4, align 4, !tbaa !33
  %9 = sext i32 %8 to i64
  %10 = getelementptr inbounds ptr, ptr %7, i64 %9
  %11 = load ptr, ptr %10, align 8, !tbaa !39
  ret ptr %11
}

; Function Attrs: inlinehint nounwind uwtable
define internal i32 @Vec_PtrSize(ptr noundef %0) #5 {
  %2 = alloca ptr, align 8
  store ptr %0, ptr %2, align 8, !tbaa !34
  %3 = load ptr, ptr %2, align 8, !tbaa !34
  %4 = getelementptr inbounds nuw %struct.Vec_Ptr_t_, ptr %3, i32 0, i32 1
  %5 = load i32, ptr %4, align 4, !tbaa !35
  ret i32 %5
}

; Function Attrs: nounwind uwtable
define ptr @Ssw_ClassesPrepareSimple(ptr noundef %0, i32 noundef %1, i32 noundef %2) #0 {
  %4 = alloca ptr, align 8
  %5 = alloca i32, align 4
  %6 = alloca i32, align 4
  %7 = alloca ptr, align 8
  %8 = alloca ptr, align 8
  %9 = alloca i32, align 4
  store ptr %0, ptr %4, align 8, !tbaa !3
  store i32 %1, ptr %5, align 4, !tbaa !33
  store i32 %2, ptr %6, align 4, !tbaa !33
  call void @llvm.lifetime.start.p0(i64 8, ptr %7) #11
  call void @llvm.lifetime.start.p0(i64 8, ptr %8) #11
  call void @llvm.lifetime.start.p0(i64 4, ptr %9) #11
  %10 = load ptr, ptr %4, align 8, !tbaa !3
  %11 = call ptr @Ssw_ClassesStart(ptr noundef %10)
  store ptr %11, ptr %7, align 8, !tbaa !8
  %12 = load ptr, ptr %7, align 8, !tbaa !8
  %13 = getelementptr inbounds nuw %struct.Ssw_Cla_t_, ptr %12, i32 0, i32 5
  store i32 0, ptr %13, align 8, !tbaa !45
  store i32 0, ptr %9, align 4, !tbaa !33
  br label %14

14:                                               ; preds = %75, %3
  %15 = load i32, ptr %9, align 4, !tbaa !33
  %16 = load ptr, ptr %4, align 8, !tbaa !3
  %17 = getelementptr inbounds nuw %struct.Aig_Man_t_, ptr %16, i32 0, i32 4
  %18 = load ptr, ptr %17, align 8, !tbaa !32
  %19 = call i32 @Vec_PtrSize(ptr noundef %18)
  %20 = icmp slt i32 %15, %19
  br i1 %20, label %21, label %27

21:                                               ; preds = %14
  %22 = load ptr, ptr %4, align 8, !tbaa !3
  %23 = getelementptr inbounds nuw %struct.Aig_Man_t_, ptr %22, i32 0, i32 4
  %24 = load ptr, ptr %23, align 8, !tbaa !32
  %25 = load i32, ptr %9, align 4, !tbaa !33
  %26 = call ptr @Vec_PtrEntry(ptr noundef %24, i32 noundef %25)
  store ptr %26, ptr %8, align 8, !tbaa !48
  br label %27

27:                                               ; preds = %21, %14
  %28 = phi i1 [ false, %14 ], [ true, %21 ]
  br i1 %28, label %29, label %78

29:                                               ; preds = %27
  %30 = load ptr, ptr %8, align 8, !tbaa !48
  %31 = icmp eq ptr %30, null
  br i1 %31, label %32, label %33

32:                                               ; preds = %29
  br label %74

33:                                               ; preds = %29
  %34 = load i32, ptr %5, align 4, !tbaa !33
  %35 = icmp ne i32 %34, 0
  br i1 %35, label %36, label %43

36:                                               ; preds = %33
  %37 = load ptr, ptr %4, align 8, !tbaa !3
  %38 = load ptr, ptr %8, align 8, !tbaa !48
  %39 = call i32 @Saig_ObjIsLo(ptr noundef %37, ptr noundef %38)
  %40 = icmp ne i32 %39, 0
  br i1 %40, label %42, label %41

41:                                               ; preds = %36
  br label %75

42:                                               ; preds = %36
  br label %67

43:                                               ; preds = %33
  %44 = load ptr, ptr %8, align 8, !tbaa !48
  %45 = call i32 @Aig_ObjIsNode(ptr noundef %44)
  %46 = icmp ne i32 %45, 0
  br i1 %46, label %53, label %47

47:                                               ; preds = %43
  %48 = load ptr, ptr %4, align 8, !tbaa !3
  %49 = load ptr, ptr %8, align 8, !tbaa !48
  %50 = call i32 @Saig_ObjIsLo(ptr noundef %48, ptr noundef %49)
  %51 = icmp ne i32 %50, 0
  br i1 %51, label %53, label %52

52:                                               ; preds = %47
  br label %75

53:                                               ; preds = %47, %43
  %54 = load i32, ptr %6, align 4, !tbaa !33
  %55 = icmp ne i32 %54, 0
  br i1 %55, label %56, label %66

56:                                               ; preds = %53
  %57 = load ptr, ptr %8, align 8, !tbaa !48
  %58 = getelementptr inbounds nuw %struct.Aig_Obj_t_, ptr %57, i32 0, i32 3
  %59 = load i64, ptr %58, align 8
  %60 = lshr i64 %59, 32
  %61 = and i64 %60, 16777215
  %62 = trunc i64 %61 to i32
  %63 = load i32, ptr %6, align 4, !tbaa !33
  %64 = icmp sgt i32 %62, %63
  br i1 %64, label %65, label %66

65:                                               ; preds = %56
  br label %75

66:                                               ; preds = %56, %53
  br label %67

67:                                               ; preds = %66, %42
  %68 = load ptr, ptr %4, align 8, !tbaa !3
  %69 = load ptr, ptr %8, align 8, !tbaa !48
  call void @Ssw_ObjSetConst1Cand(ptr noundef %68, ptr noundef %69)
  %70 = load ptr, ptr %7, align 8, !tbaa !8
  %71 = getelementptr inbounds nuw %struct.Ssw_Cla_t_, ptr %70, i32 0, i32 5
  %72 = load i32, ptr %71, align 8, !tbaa !45
  %73 = add nsw i32 %72, 1
  store i32 %73, ptr %71, align 8, !tbaa !45
  br label %74

74:                                               ; preds = %67, %32
  br label %75

75:                                               ; preds = %74, %65, %52, %41
  %76 = load i32, ptr %9, align 4, !tbaa !33
  %77 = add nsw i32 %76, 1
  store i32 %77, ptr %9, align 4, !tbaa !33
  br label %14, !llvm.loop !85

78:                                               ; preds = %27
  %79 = load ptr, ptr %7, align 8, !tbaa !8
  %80 = getelementptr inbounds nuw %struct.Ssw_Cla_t_, ptr %79, i32 0, i32 5
  %81 = load i32, ptr %80, align 8, !tbaa !45
  %82 = sext i32 %81 to i64
  %83 = mul i64 8, %82
  %84 = call noalias ptr @malloc(i64 noundef %83) #12
  %85 = load ptr, ptr %7, align 8, !tbaa !8
  %86 = getelementptr inbounds nuw %struct.Ssw_Cla_t_, ptr %85, i32 0, i32 7
  store ptr %84, ptr %86, align 8, !tbaa !44
  %87 = load ptr, ptr %7, align 8, !tbaa !8
  %88 = getelementptr inbounds nuw %struct.Ssw_Cla_t_, ptr %87, i32 0, i32 8
  store ptr %84, ptr %88, align 8, !tbaa !65
  %89 = load ptr, ptr %7, align 8, !tbaa !8
  call void @llvm.lifetime.end.p0(i64 4, ptr %9) #11
  call void @llvm.lifetime.end.p0(i64 8, ptr %8) #11
  call void @llvm.lifetime.end.p0(i64 8, ptr %7) #11
  ret ptr %89
}