; Function Attrs: nounwind uwtable
define noalias noundef ptr @Ssw_ClassesPrepareSimple(ptr noundef %0, i32 noundef %1, i32 noundef %2) local_unnamed_addr #0 {
  %4 = tail call ptr @Ssw_ClassesStart(ptr noundef %0)
  %5 = getelementptr inbounds nuw i8, ptr %4, i64 32
  store i32 0, ptr %5, align 8, !tbaa !39
  %6 = getelementptr inbounds nuw i8, ptr %0, i64 32
  %7 = load ptr, ptr %6, align 8, !tbaa !14
  %8 = getelementptr i8, ptr %7, i64 4
  %.val = load i32, ptr %8, align 4, !tbaa !24
  %9 = icmp sgt i32 %.val, 0
  br i1 %9, label %.lr.ph, label %.critedge

.lr.ph:                                           ; preds = %3
  %10 = getelementptr i8, ptr %7, i64 8
  %.val29 = load ptr, ptr %10, align 8, !tbaa !29
  %.not = icmp eq i32 %1, 0
  %11 = getelementptr i8, ptr %0, i64 108
  %12 = getelementptr i8, ptr %0, i64 48
  %13 = getelementptr i8, ptr %0, i64 256
  br i1 %.not, label %.lr.ph.split.us, label %.lr.ph.split.preheader

.lr.ph.split.preheader:                           ; preds = %.lr.ph
  %wide.trip.count = zext nneg i32 %.val to i64
  br label %.lr.ph.split

.lr.ph.split.us:                                  ; preds = %.lr.ph
  %.not27 = icmp eq i32 %2, 0
  %wide.trip.count55 = zext nneg i32 %.val to i64
  br i1 %.not27, label %.lr.ph.split.us.split.us, label %.lr.ph.split.us.split

.lr.ph.split.us.split.us:                         ; preds = %.lr.ph.split.us, %Saig_ObjIsLo.exit.thread.us.us
  %14 = phi i32 [ %30, %Saig_ObjIsLo.exit.thread.us.us ], [ 0, %.lr.ph.split.us ]
  %indvars.iv52 = phi i64 [ %indvars.iv.next53, %Saig_ObjIsLo.exit.thread.us.us ], [ 0, %.lr.ph.split.us ]
  %15 = getelementptr inbounds nuw ptr, ptr %.val29, i64 %indvars.iv52
  %16 = load ptr, ptr %15, align 8, !tbaa !46
  %17 = icmp eq ptr %16, null
  br i1 %17, label %Saig_ObjIsLo.exit.thread.us.us, label %18

18:                                               ; preds = %.lr.ph.split.us.split.us
  %19 = getelementptr i8, ptr %16, i64 24
  %.val33.us.us = load i64, ptr %19, align 8
  %20 = trunc i64 %.val33.us.us to i32
  %21 = and i32 %20, 7
  %22 = add nsw i32 %21, -7
  %narrow.i.us.us = icmp ult i32 %22, -2
  br i1 %narrow.i.us.us, label %23, label %25

23:                                               ; preds = %18
  %24 = and i64 %.val33.us.us, 7
  %.not.i35.us.us = icmp eq i64 %24, 2
  br i1 %.not.i35.us.us, label %Saig_ObjIsLo.exit38.us.us, label %Saig_ObjIsLo.exit.thread.us.us

Saig_ObjIsLo.exit38.us.us:                        ; preds = %23
  %.val3.i36.us.us = load i32, ptr %16, align 8, !tbaa !70
  %.val4.i37.us.us = load i32, ptr %11, align 4, !tbaa !71
  %.not42.us.us = icmp slt i32 %.val3.i36.us.us, %.val4.i37.us.us
  br i1 %.not42.us.us, label %Saig_ObjIsLo.exit.thread.us.us, label %25

25:                                               ; preds = %Saig_ObjIsLo.exit38.us.us, %18
  %.val30.us.us = load ptr, ptr %12, align 8, !tbaa !55
  %.val31.us.us = load ptr, ptr %13, align 8, !tbaa !33
  %26 = getelementptr i8, ptr %16, i64 36
  %.val32.us.us = load i32, ptr %26, align 4, !tbaa !42
  %27 = sext i32 %.val32.us.us to i64
  %28 = getelementptr inbounds ptr, ptr %.val31.us.us, i64 %27
  store ptr %.val30.us.us, ptr %28, align 8, !tbaa !45
  %29 = add nsw i32 %14, 1
  store i32 %29, ptr %5, align 8, !tbaa !39
  br label %Saig_ObjIsLo.exit.thread.us.us

Saig_ObjIsLo.exit.thread.us.us:                   ; preds = %25, %Saig_ObjIsLo.exit38.us.us, %23, %.lr.ph.split.us.split.us
  %30 = phi i32 [ %29, %25 ], [ %14, %Saig_ObjIsLo.exit38.us.us ], [ %14, %23 ], [ %14, %.lr.ph.split.us.split.us ]
  %indvars.iv.next53 = add nuw nsw i64 %indvars.iv52, 1
  %exitcond56.not = icmp eq i64 %indvars.iv.next53, %wide.trip.count55
  br i1 %exitcond56.not, label %.critedge, label %.lr.ph.split.us.split.us, !llvm.loop !82

.lr.ph.split.us.split:                            ; preds = %.lr.ph.split.us, %Saig_ObjIsLo.exit.thread.us
  %31 = phi i32 [ %52, %Saig_ObjIsLo.exit.thread.us ], [ 0, %.lr.ph.split.us ]
  %indvars.iv47 = phi i64 [ %indvars.iv.next48, %Saig_ObjIsLo.exit.thread.us ], [ 0, %.lr.ph.split.us ]
  %32 = getelementptr inbounds nuw ptr, ptr %.val29, i64 %indvars.iv47
  %33 = load ptr, ptr %32, align 8, !tbaa !46
  %34 = icmp eq ptr %33, null
  br i1 %34, label %Saig_ObjIsLo.exit.thread.us, label %35

35:                                               ; preds = %.lr.ph.split.us.split
  %36 = getelementptr i8, ptr %33, i64 24
  %.val33.us = load i64, ptr %36, align 8
  %37 = trunc i64 %.val33.us to i32
  %38 = and i32 %37, 7
  %39 = add nsw i32 %38, -7
  %narrow.i.us = icmp ult i32 %39, -2
  br i1 %narrow.i.us, label %40, label %42

40:                                               ; preds = %35
  %41 = and i64 %.val33.us, 7
  %.not.i35.us = icmp eq i64 %41, 2
  br i1 %.not.i35.us, label %Saig_ObjIsLo.exit38.us, label %Saig_ObjIsLo.exit.thread.us

Saig_ObjIsLo.exit38.us:                           ; preds = %40
  %.val3.i36.us = load i32, ptr %33, align 8, !tbaa !70
  %.val4.i37.us = load i32, ptr %11, align 4, !tbaa !71
  %.not42.us = icmp slt i32 %.val3.i36.us, %.val4.i37.us
  br i1 %.not42.us, label %Saig_ObjIsLo.exit.thread.us, label %42

42:                                               ; preds = %Saig_ObjIsLo.exit38.us, %35
  %43 = lshr i64 %.val33.us, 32
  %44 = trunc nuw i64 %43 to i32
  %45 = and i32 %44, 16777215
  %46 = icmp sgt i32 %45, %2
  br i1 %46, label %Saig_ObjIsLo.exit.thread.us, label %47

47:                                               ; preds = %42
  %.val30.us = load ptr, ptr %12, align 8, !tbaa !55
  %.val31.us = load ptr, ptr %13, align 8, !tbaa !33
  %48 = getelementptr i8, ptr %33, i64 36
  %.val32.us = load i32, ptr %48, align 4, !tbaa !42
  %49 = sext i32 %.val32.us to i64
  %50 = getelementptr inbounds ptr, ptr %.val31.us, i64 %49
  store ptr %.val30.us, ptr %50, align 8, !tbaa !45
  %51 = add nsw i32 %31, 1
  store i32 %51, ptr %5, align 8, !tbaa !39
  br label %Saig_ObjIsLo.exit.thread.us

Saig_ObjIsLo.exit.thread.us:                      ; preds = %47, %42, %Saig_ObjIsLo.exit38.us, %40, %.lr.ph.split.us.split
  %52 = phi i32 [ %51, %47 ], [ %31, %42 ], [ %31, %Saig_ObjIsLo.exit38.us ], [ %31, %40 ], [ %31, %.lr.ph.split.us.split ]
  %indvars.iv.next48 = add nuw nsw i64 %indvars.iv47, 1
  %exitcond51.not = icmp eq i64 %indvars.iv.next48, %wide.trip.count55
  br i1 %exitcond51.not, label %.critedge, label %.lr.ph.split.us.split, !llvm.loop !82

.lr.ph.split:                                     ; preds = %.lr.ph.split.preheader, %Saig_ObjIsLo.exit.thread
  %53 = phi i32 [ 0, %.lr.ph.split.preheader ], [ %65, %Saig_ObjIsLo.exit.thread ]
  %indvars.iv = phi i64 [ 0, %.lr.ph.split.preheader ], [ %indvars.iv.next, %Saig_ObjIsLo.exit.thread ]
  %54 = getelementptr inbounds nuw ptr, ptr %.val29, i64 %indvars.iv
  %55 = load ptr, ptr %54, align 8, !tbaa !46
  %56 = icmp eq ptr %55, null
  br i1 %56, label %Saig_ObjIsLo.exit.thread, label %57

57:                                               ; preds = %.lr.ph.split
  %58 = getelementptr i8, ptr %55, i64 24
  %.val.i = load i64, ptr %58, align 8
  %59 = and i64 %.val.i, 7
  %.not.i = icmp eq i64 %59, 2
  br i1 %.not.i, label %Saig_ObjIsLo.exit, label %Saig_ObjIsLo.exit.thread

Saig_ObjIsLo.exit:                                ; preds = %57
  %.val3.i = load i32, ptr %55, align 8, !tbaa !70
  %.val4.i = load i32, ptr %11, align 4, !tbaa !71
  %.not41 = icmp slt i32 %.val3.i, %.val4.i
  br i1 %.not41, label %Saig_ObjIsLo.exit.thread, label %60

60:                                               ; preds = %Saig_ObjIsLo.exit
  %.val30 = load ptr, ptr %12, align 8, !tbaa !55
  %.val31 = load ptr, ptr %13, align 8, !tbaa !33
  %61 = getelementptr i8, ptr %55, i64 36
  %.val32 = load i32, ptr %61, align 4, !tbaa !42
  %62 = sext i32 %.val32 to i64
  %63 = getelementptr inbounds ptr, ptr %.val31, i64 %62
  store ptr %.val30, ptr %63, align 8, !tbaa !45
  %64 = add nsw i32 %53, 1
  store i32 %64, ptr %5, align 8, !tbaa !39
  br label %Saig_ObjIsLo.exit.thread

Saig_ObjIsLo.exit.thread:                         ; preds = %57, %60, %.lr.ph.split, %Saig_ObjIsLo.exit
  %65 = phi i32 [ %53, %57 ], [ %64, %60 ], [ %53, %.lr.ph.split ], [ %53, %Saig_ObjIsLo.exit ]
  %indvars.iv.next = add nuw nsw i64 %indvars.iv, 1
  %exitcond.not = icmp eq i64 %indvars.iv.next, %wide.trip.count
  br i1 %exitcond.not, label %.critedge, label %.lr.ph.split, !llvm.loop !82

.critedge:                                        ; preds = %Saig_ObjIsLo.exit.thread, %Saig_ObjIsLo.exit.thread.us, %Saig_ObjIsLo.exit.thread.us.us, %3
  %66 = phi i32 [ 0, %3 ], [ %30, %Saig_ObjIsLo.exit.thread.us.us ], [ %52, %Saig_ObjIsLo.exit.thread.us ], [ %65, %Saig_ObjIsLo.exit.thread ]
  %67 = sext i32 %66 to i64
  %68 = shl nsw i64 %67, 3
  %69 = tail call noalias ptr @malloc(i64 noundef %68) #22
  %70 = getelementptr inbounds nuw i8, ptr %4, i64 40
  store ptr %69, ptr %70, align 8, !tbaa !38
  %71 = getelementptr inbounds nuw i8, ptr %4, i64 48
  store ptr %69, ptr %71, align 8, !tbaa !62
  ret ptr %4
}